; Function Attrs: nounwind sspstrong uwtable
define hidden void @rb_iseq_clear_event_flags(ptr noundef readonly captures(none) %0, i64 noundef %1, i32 noundef %2) local_unnamed_addr #0 {
  %4 = alloca i64, align 8
  %5 = getelementptr i8, ptr %0, i64 16
  %.val = load ptr, ptr %5, align 8, !tbaa !7
  %6 = getelementptr inbounds nuw i8, ptr %.val, i64 112
  %7 = getelementptr inbounds nuw i8, ptr %.val, i64 128
  %8 = load i32, ptr %7, align 8, !tbaa !141
  %9 = load ptr, ptr %6, align 8, !tbaa !77
  switch i32 %8, label %10 [
    i32 0, label %get_insn_info.exit.thread
    i32 1, label %get_insn_info.exit
  ]

10:                                               ; preds = %3
  %11 = getelementptr inbounds nuw i8, ptr %.val, i64 136
  %12 = load ptr, ptr %11, align 8, !tbaa !79
  %13 = trunc i64 %1 to i32
  %14 = icmp slt i32 %13, 54
  br i1 %14, label %15, label %26

15:                                               ; preds = %10
  %16 = sdiv i32 %13, 9
  %17 = srem i32 %13, 9
  %18 = sext i32 %16 to i64
  %19 = getelementptr [6 x i64], ptr %12, i64 0, i64 %18
  %20 = load i64, ptr %19, align 8, !tbaa !42
  %21 = mul nsw i32 %17, 7
  %22 = zext nneg i32 %21 to i64
  %23 = lshr i64 %20, %22
  %24 = trunc i64 %23 to i32
  %25 = and i32 %24, 127
  br label %succ_index_lookup.exit.i.i

26:                                               ; preds = %10
  %27 = add nsw i32 %13, -54
  %28 = lshr i32 %27, 9
  %29 = getelementptr inbounds nuw i8, ptr %12, i64 48
  %30 = zext nneg i32 %28 to i64
  %31 = getelementptr [0 x %struct.succ_dict_block], ptr %29, i64 0, i64 %30
  %32 = and i32 %27, 511
  %33 = lshr i32 %32, 6
  %34 = icmp samesign ult i32 %32, 64
  br i1 %34, label %44, label %35

35:                                               ; preds = %26
  %36 = getelementptr inbounds nuw i8, ptr %31, i64 8
  %37 = load i64, ptr %36, align 8, !tbaa !151
  %38 = mul nuw nsw i32 %33, 9
  %39 = add nsw i32 %38, -9
  %40 = zext nneg i32 %39 to i64
  %41 = lshr i64 %37, %40
  %42 = trunc i64 %41 to i32
  %43 = and i32 %42, 511
  br label %44

44:                                               ; preds = %35, %26
  %45 = phi i32 [ %43, %35 ], [ 0, %26 ]
  %46 = getelementptr inbounds nuw i8, ptr %31, i64 16
  %47 = zext nneg i32 %33 to i64
  %48 = getelementptr [8 x i64], ptr %46, i64 0, i64 %47
  %49 = load i64, ptr %48, align 8, !tbaa !42
  %50 = and i32 %27, 63
  %51 = xor i32 %50, 63
  %52 = zext nneg i32 %51 to i64
  %53 = shl i64 %49, %52
  %54 = tail call range(i64 0, 65) i64 @llvm.ctpop.i64(i64 %53)
  %55 = trunc nuw nsw i64 %54 to i32
  %56 = load i32, ptr %31, align 8, !tbaa !149
  %57 = add i32 %56, %45
  %58 = add i32 %57, %55
  br label %succ_index_lookup.exit.i.i

succ_index_lookup.exit.i.i:                       ; preds = %44, %15
  %.0.i.i.i = phi i32 [ %25, %15 ], [ %58, %44 ]
  %59 = add i32 %.0.i.i.i, -1
  %60 = sext i32 %59 to i64
  %61 = getelementptr %struct.iseq_insn_info_entry, ptr %9, i64 %60
  br label %get_insn_info.exit

get_insn_info.exit:                               ; preds = %3, %succ_index_lookup.exit.i.i
  %.0.i.i = phi ptr [ %61, %succ_index_lookup.exit.i.i ], [ %9, %3 ]
  %.not = icmp eq ptr %.0.i.i, null
  br i1 %.not, label %get_insn_info.exit.thread, label %62

62:                                               ; preds = %get_insn_info.exit
  %63 = xor i32 %2, -1
  %64 = getelementptr inbounds nuw i8, ptr %.0.i.i, i64 8
  %65 = load i32, ptr %64, align 4, !tbaa !163
  %66 = and i32 %65, %63
  store i32 %66, ptr %64, align 4, !tbaa !163
  %67 = getelementptr inbounds nuw i8, ptr %0, i64 32
  %68 = load i32, ptr %67, align 8, !tbaa !84
  %69 = and i32 %68, %66
  %.not8 = icmp eq i32 %69, 0
  br i1 %.not8, label %70, label %get_insn_info.exit.thread

70:                                               ; preds = %62
  %71 = getelementptr inbounds nuw i8, ptr %.val, i64 8
  %72 = load ptr, ptr %71, align 8, !tbaa !76
  %73 = getelementptr i64, ptr %72, i64 %1
  %74 = load i64, ptr %73, align 8, !tbaa !42
  call void @llvm.lifetime.start.p0(i64 8, ptr nonnull %4) #20
  %75 = load ptr, ptr @encoded_insn_data, align 8, !tbaa !165
  %76 = call i32 @rb_st_lookup(ptr noundef %75, i64 noundef %74, ptr noundef nonnull %4) #20
  %.not.i.i = icmp eq i32 %76, 0
  br i1 %.not.i.i, label %77, label %rb_iseq_trace_flag_cleared.exit

77:                                               ; preds = %70
  %78 = load i64, ptr %73, align 8, !tbaa !42
  %79 = inttoptr i64 %78 to ptr
  call void (ptr, ...) @rb_bug(ptr noundef nonnull @.str.201, ptr noundef %79) #23
  unreachable

rb_iseq_trace_flag_cleared.exit:                  ; preds = %70
  %80 = load i64, ptr %4, align 8, !tbaa !42
  %81 = inttoptr i64 %80 to ptr
  %.in.i.i = getelementptr inbounds nuw i8, ptr %81, i64 8
  %82 = load ptr, ptr %.in.i.i, align 8, !tbaa !168
  %83 = ptrtoint ptr %82 to i64
  store i64 %83, ptr %73, align 8, !tbaa !42
  call void @llvm.lifetime.end.p0(i64 8, ptr nonnull %4) #20
  br label %get_insn_info.exit.thread

get_insn_info.exit.thread:                        ; preds = %3, %62, %rb_iseq_trace_flag_cleared.exit, %get_insn_info.exit
  ret void
}